; Function Attrs: nounwind uwtable
define internal ptr @cell_get_contents(ptr noundef readonly captures(none) %0, ptr readnone captures(none) %1) #0 {
  %3 = getelementptr i8, ptr %0, i64 16
  %.val = load ptr, ptr %3, align 8, !tbaa !7
  %.not.i.i.i = icmp eq ptr %.val, null
  br i1 %.not.i.i.i, label %PyCell_GetRef.exit, label %4

4:                                                ; preds = %2
  %5 = load i32, ptr %.val, align 8, !tbaa !4
  %6 = icmp slt i32 %5, 0
  br i1 %6, label %PyCell_GetRef.exit.thread, label %7

7:                                                ; preds = %4
  %8 = add nuw i32 %5, 1
  store i32 %8, ptr %.val, align 8, !tbaa !4
  br label %PyCell_GetRef.exit.thread

PyCell_GetRef.exit:                               ; preds = %2
  %9 = load ptr, ptr @PyExc_ValueError, align 8, !tbaa !106
  tail call void @PyErr_SetString(ptr noundef %9, ptr noundef nonnull @.str.6) #4
  br label %PyCell_GetRef.exit.thread

PyCell_GetRef.exit.thread:                        ; preds = %7, %4, %PyCell_GetRef.exit
  ret ptr %.val
}